target datalayout = "e-m:e-p270:32:32-p271:32:32-p272:64:64-i64:64-i128:128-f80:128-n8:16:32:64-S128"
target triple = "x86_64-pc-linux-gnu"

%struct.symlink_trav_t = type { i64, i64, ptr, i8 }
%struct.symlink_trav_path_t = type { i32, ptr, ptr }

; Function Attrs: nounwind willreturn memory(read) uwtable
define zeroext i1 @symlink_is_visited(ptr noundef %0, i32 noundef %1, ptr noundef %2, ptr noundef %3) #8 {
  %5 = alloca i1, align 1
  %6 = alloca ptr, align 8
  %7 = alloca i32, align 4
  %8 = alloca ptr, align 8
  %9 = alloca ptr, align 8
  %10 = alloca i64, align 8
  %11 = alloca i32, align 4
  store ptr %0, ptr %6, align 8, !tbaa !107
  store i32 %1, ptr %7, align 4, !tbaa !3
  store ptr %2, ptr %8, align 8, !tbaa !10
  store ptr %3, ptr %9, align 8, !tbaa !10
  call void @llvm.lifetime.start.p0(i64 8, ptr %10) #10
  store i64 0, ptr %10, align 8, !tbaa !21
  br label %12

12:                                               ; preds = %63, %4
  %13 = load i64, ptr %10, align 8, !tbaa !21
  %14 = load ptr, ptr %6, align 8, !tbaa !107
  %15 = getelementptr inbounds nuw %struct.symlink_trav_t, ptr %14, i32 0, i32 1
  %16 = load i64, ptr %15, align 8, !tbaa !109
  %17 = icmp ult i64 %13, %16
  br i1 %17, label %18, label %66

18:                                               ; preds = %12
  %19 = load ptr, ptr %6, align 8, !tbaa !107
  %20 = getelementptr inbounds nuw %struct.symlink_trav_t, ptr %19, i32 0, i32 2
  %21 = load ptr, ptr %20, align 8, !tbaa !111
  %22 = load i64, ptr %10, align 8, !tbaa !21
  %23 = getelementptr inbounds nuw %struct.symlink_trav_path_t, ptr %21, i64 %22
  %24 = getelementptr inbounds nuw %struct.symlink_trav_path_t, ptr %23, i32 0, i32 0
  %25 = load i32, ptr %24, align 8, !tbaa !112
  %26 = load i32, ptr %7, align 4, !tbaa !3
  %27 = icmp eq i32 %25, %26
  br i1 %27, label %28, label %62

28:                                               ; preds = %18
  %29 = load ptr, ptr %6, align 8, !tbaa !107
  %30 = getelementptr inbounds nuw %struct.symlink_trav_t, ptr %29, i32 0, i32 2
  %31 = load ptr, ptr %30, align 8, !tbaa !111
  %32 = load i64, ptr %10, align 8, !tbaa !21
  %33 = getelementptr inbounds nuw %struct.symlink_trav_path_t, ptr %31, i64 %32
  %34 = getelementptr inbounds nuw %struct.symlink_trav_path_t, ptr %33, i32 0, i32 2
  %35 = load ptr, ptr %34, align 8, !tbaa !74
  %36 = load ptr, ptr %9, align 8, !tbaa !10
  %37 = call i32 @strcmp(ptr noundef %35, ptr noundef %36) #12
  %38 = icmp ne i32 %37, 0
  br i1 %38, label %62, label %39

39:                                               ; preds = %28
  %40 = load ptr, ptr %6, align 8, !tbaa !107
  %41 = getelementptr inbounds nuw %struct.symlink_trav_t, ptr %40, i32 0, i32 2
  %42 = load ptr, ptr %41, align 8, !tbaa !111
  %43 = load i64, ptr %10, align 8, !tbaa !21
  %44 = getelementptr inbounds nuw %struct.symlink_trav_path_t, ptr %42, i64 %43
  %45 = getelementptr inbounds nuw %struct.symlink_trav_path_t, ptr %44, i32 0, i32 0
  %46 = load i32, ptr %45, align 8, !tbaa !112
  %47 = icmp eq i32 %46, 64
  br i1 %47, label %48, label %61

48:                                               ; preds = %39
  %49 = load ptr, ptr %6, align 8, !tbaa !107
  %50 = getelementptr inbounds nuw %struct.symlink_trav_t, ptr %49, i32 0, i32 2
  %51 = load ptr, ptr %50, align 8, !tbaa !111
  %52 = load i64, ptr %10, align 8, !tbaa !21
  %53 = getelementptr inbounds nuw %struct.symlink_trav_path_t, ptr %51, i64 %52
  %54 = getelementptr inbounds nuw %struct.symlink_trav_path_t, ptr %53, i32 0, i32 1
  %55 = load ptr, ptr %54, align 8, !tbaa !72
  %56 = load ptr, ptr %8, align 8, !tbaa !10
  %57 = call i32 @strcmp(ptr noundef %55, ptr noundef %56) #12
  %58 = icmp ne i32 %57, 0
  br i1 %58, label %60, label %59

59:                                               ; preds = %48
  store i1 true, ptr %5, align 1
  store i32 1, ptr %11, align 4
  br label %67

60:                                               ; preds = %48
  br label %61

61:                                               ; preds = %60, %39
  store i1 true, ptr %5, align 1
  store i32 1, ptr %11, align 4
  br label %67

62:                                               ; preds = %28, %18
  br label %63

63:                                               ; preds = %62
  %64 = load i64, ptr %10, align 8, !tbaa !21
  %65 = add i64 %64, 1
  store i64 %65, ptr %10, align 8, !tbaa !21
  br label %12, !llvm.loop !113

66:                                               ; preds = %12
  store i1 false, ptr %5, align 1
  store i32 1, ptr %11, align 4
  br label %67

67:                                               ; preds = %66, %61, %59
  call void @llvm.lifetime.end.p0(i64 8, ptr %10) #10
  %68 = load i1, ptr %5, align 1
  ret i1 %68
}