; Function Attrs: mustprogress nofree nounwind willreturn memory(read, inaccessiblemem: none) uwtable
define noundef zeroext i1 @symlink_is_visited(ptr noundef readonly captures(none) %0, i32 noundef %1, ptr noundef readnone captures(none) %2, ptr noundef readonly captures(none) %3) local_unnamed_addr #8 {
  %5 = getelementptr inbounds nuw i8, ptr %0, i64 8
  %6 = load i64, ptr %5, align 8, !tbaa !98
  %.not20 = icmp eq i64 %6, 0
  br i1 %.not20, label %._crit_edge, label %.lr.ph

.lr.ph:                                           ; preds = %4
  %7 = getelementptr inbounds nuw i8, ptr %0, i64 16
  %8 = load ptr, ptr %7, align 8, !tbaa !100
  br label %9

9:                                                ; preds = %.lr.ph, %17
  %.017 = phi i64 [ 0, %.lr.ph ], [ %18, %17 ]
  %10 = getelementptr inbounds nuw %struct.symlink_trav_path_t, ptr %8, i64 %.017
  %11 = load i32, ptr %10, align 8, !tbaa !101
  %12 = icmp eq i32 %11, %1
  br i1 %12, label %13, label %17

13:                                               ; preds = %9
  %14 = getelementptr inbounds nuw i8, ptr %10, i64 16
  %15 = load ptr, ptr %14, align 8, !tbaa !67
  %16 = tail call i32 @strcmp(ptr noundef nonnull dereferenceable(1) %15, ptr noundef nonnull dereferenceable(1) %3) #20
  %.not = icmp eq i32 %16, 0
  br i1 %.not, label %._crit_edge, label %17

17:                                               ; preds = %9, %13
  %18 = add nuw i64 %.017, 1
  %exitcond.not = icmp eq i64 %18, %6
  br i1 %exitcond.not, label %._crit_edge, label %9, !llvm.loop !102

._crit_edge:                                      ; preds = %17, %13, %4
  %.lcssa = phi i1 [ false, %4 ], [ true, %13 ], [ false, %17 ]
  ret i1 %.lcssa
}